; ModuleID = '24/870.c'
source_filename = "24/870.c"
target datalayout = "e-m:e-p270:32:32-p271:32:32-p272:64:64-i64:64-f80:128-n8:16:32:64-S128"
target triple = "x86_64-pc-linux-gnu"

@.str = private unnamed_addr constant [4 x i8] c"%s\0A\00", align 1

; Function Attrs: noinline nounwind uwtable
define dso_local i32 @main(i32 %0, i8** %1) #0 {
  %3 = alloca i32, align 4
  %4 = alloca i32, align 4
  %5 = alloca i8**, align 8
  %6 = alloca [500 x i8], align 16
  %7 = alloca [50 x [500 x i8]], align 16
  %8 = alloca i32, align 4
  %9 = alloca i32, align 4
  %10 = alloca i32, align 4
  %11 = alloca [50 x i32], align 16
  %12 = alloca i32, align 4
  %13 = alloca i32, align 4
  %14 = alloca i32, align 4
  %15 = alloca i32, align 4
  store i32 0, i32* %3, align 4
  store i32 %0, i32* %4, align 4
  store i8** %1, i8*** %5, align 8
  store i32 0, i32* %12, align 4
  store i32 100000, i32* %13, align 4
  store i32 0, i32* %14, align 4
  store i32 0, i32* %15, align 4
  %16 = getelementptr inbounds [500 x i8], [500 x i8]* %6, i64 0, i64 0
  %17 = call i32 (i8*, ...) bitcast (i32 (...)* @gets to i32 (i8*, ...)*)(i8* %16)
  store i32 0, i32* %8, align 4
  store i32 0, i32* %9, align 4
  store i32 0, i32* %10, align 4
  br label %18

18:                                               ; preds = %50, %2
  %19 = load i32, i32* %10, align 4
  %20 = sext i32 %19 to i64
  %21 = getelementptr inbounds [500 x i8], [500 x i8]* %6, i64 0, i64 %20
  %22 = load i8, i8* %21, align 1
  %23 = sext i8 %22 to i32
  %24 = icmp ne i32 %23, 0
  br i1 %24, label %25, label %53

25:                                               ; preds = %18
  %26 = load i32, i32* %10, align 4
  %27 = sext i32 %26 to i64
  %28 = getelementptr inbounds [500 x i8], [500 x i8]* %6, i64 0, i64 %27
  %29 = load i8, i8* %28, align 1
  %30 = sext i8 %29 to i32
  %31 = icmp eq i32 %30, 32
  br i1 %31, label %32, label %49

32:                                               ; preds = %25
  %33 = load i32, i32* %10, align 4
  %34 = sext i32 %33 to i64
  %35 = getelementptr inbounds [500 x i8], [500 x i8]* %6, i64 0, i64 %34
  store i8 0, i8* %35, align 1
  %36 = load i32, i32* %8, align 4
  %37 = sext i32 %36 to i64
  %38 = getelementptr inbounds [50 x [500 x i8]], [50 x [500 x i8]]* %7, i64 0, i64 %37
  %39 = getelementptr inbounds [500 x i8], [500 x i8]* %38, i64 0, i64 0
  %40 = getelementptr inbounds [500 x i8], [500 x i8]* %6, i64 0, i64 0
  %41 = load i32, i32* %9, align 4
  %42 = sext i32 %41 to i64
  %43 = getelementptr inbounds i8, i8* %40, i64 %42
  %44 = call i8* @strcpy(i8* %39, i8* %43) #4
  %45 = load i32, i32* %8, align 4
  %46 = add nsw i32 %45, 1
  store i32 %46, i32* %8, align 4
  %47 = load i32, i32* %10, align 4
  %48 = add nsw i32 %47, 1
  store i32 %48, i32* %9, align 4
  br label %49

49:                                               ; preds = %32, %25
  br label %50

50:                                               ; preds = %49
  %51 = load i32, i32* %10, align 4
  %52 = add nsw i32 %51, 1
  store i32 %52, i32* %10, align 4
  br label %18

53:                                               ; preds = %18
  %54 = load i32, i32* %8, align 4
  %55 = sext i32 %54 to i64
  %56 = getelementptr inbounds [50 x [500 x i8]], [50 x [500 x i8]]* %7, i64 0, i64 %55
  %57 = getelementptr inbounds [500 x i8], [500 x i8]* %56, i64 0, i64 0
  %58 = getelementptr inbounds [500 x i8], [500 x i8]* %6, i64 0, i64 0
  %59 = load i32, i32* %9, align 4
  %60 = sext i32 %59 to i64
  %61 = getelementptr inbounds i8, i8* %58, i64 %60
  %62 = call i8* @strcpy(i8* %57, i8* %61) #4
  %63 = load i32, i32* %8, align 4
  %64 = add nsw i32 %63, 1
  store i32 %64, i32* %8, align 4
  store i32 0, i32* %10, align 4
  br label %65

65:                                               ; preds = %92, %53
  %66 = load i32, i32* %10, align 4
  %67 = load i32, i32* %8, align 4
  %68 = icmp slt i32 %66, %67
  br i1 %68, label %69, label %95

69:                                               ; preds = %65
  %70 = load i32, i32* %10, align 4
  %71 = sext i32 %70 to i64
  %72 = getelementptr inbounds [50 x [500 x i8]], [50 x [500 x i8]]* %7, i64 0, i64 %71
  %73 = getelementptr inbounds [500 x i8], [500 x i8]* %72, i64 0, i64 0
  %74 = call i64 @strlen(i8* %73) #5
  %75 = trunc i64 %74 to i32
  %76 = load i32, i32* %10, align 4
  %77 = sext i32 %76 to i64
  %78 = getelementptr inbounds [50 x i32], [50 x i32]* %11, i64 0, i64 %77
  store i32 %75, i32* %78, align 4
  %79 = load i32, i32* %10, align 4
  %80 = sext i32 %79 to i64
  %81 = getelementptr inbounds [50 x i32], [50 x i32]* %11, i64 0, i64 %80
  %82 = load i32, i32* %81, align 4
  %83 = load i32, i32* %12, align 4
  %84 = icmp sgt i32 %82, %83
  br i1 %84, label %85, label %91

85:                                               ; preds = %69
  %86 = load i32, i32* %10, align 4
  store i32 %86, i32* %14, align 4
  %87 = load i32, i32* %10, align 4
  %88 = sext i32 %87 to i64
  %89 = getelementptr inbounds [50 x i32], [50 x i32]* %11, i64 0, i64 %88
  %90 = load i32, i32* %89, align 4
  store i32 %90, i32* %12, align 4
  br label %91

91:                                               ; preds = %85, %69
  br label %92

92:                                               ; preds = %91
  %93 = load i32, i32* %10, align 4
  %94 = add nsw i32 %93, 1
  store i32 %94, i32* %10, align 4
  br label %65

95:                                               ; preds = %65
  store i32 0, i32* %10, align 4
  br label %96

96:                                               ; preds = %123, %95
  %97 = load i32, i32* %10, align 4
  %98 = load i32, i32* %8, align 4
  %99 = icmp slt i32 %97, %98
  br i1 %99, label %100, label %126

100:                                              ; preds = %96
  %101 = load i32, i32* %10, align 4
  %102 = sext i32 %101 to i64
  %103 = getelementptr inbounds [50 x [500 x i8]], [50 x [500 x i8]]* %7, i64 0, i64 %102
  %104 = getelementptr inbounds [500 x i8], [500 x i8]* %103, i64 0, i64 0
  %105 = call i64 @strlen(i8* %104) #5
  %106 = trunc i64 %105 to i32
  %107 = load i32, i32* %10, align 4
  %108 = sext i32 %107 to i64
  %109 = getelementptr inbounds [50 x i32], [50 x i32]* %11, i64 0, i64 %108
  store i32 %106, i32* %109, align 4
  %110 = load i32, i32* %10, align 4
  %111 = sext i32 %110 to i64
  %112 = getelementptr inbounds [50 x i32], [50 x i32]* %11, i64 0, i64 %111
  %113 = load i32, i32* %112, align 4
  %114 = load i32, i32* %13, align 4
  %115 = icmp slt i32 %113, %114
  br i1 %115, label %116, label %122

116:                                              ; preds = %100
  %117 = load i32, i32* %10, align 4
  store i32 %117, i32* %15, align 4
  %118 = load i32, i32* %10, align 4
  %119 = sext i32 %118 to i64
  %120 = getelementptr inbounds [50 x i32], [50 x i32]* %11, i64 0, i64 %119
  %121 = load i32, i32* %120, align 4
  store i32 %121, i32* %13, align 4
  br label %122

122:                                              ; preds = %116, %100
  br label %123

123:                                              ; preds = %122
  %124 = load i32, i32* %10, align 4
  %125 = add nsw i32 %124, 1
  store i32 %125, i32* %10, align 4
  br label %96

126:                                              ; preds = %96
  %127 = load i32, i32* %14, align 4
  %128 = sext i32 %127 to i64
  %129 = getelementptr inbounds [50 x [500 x i8]], [50 x [500 x i8]]* %7, i64 0, i64 %128
  %130 = getelementptr inbounds [500 x i8], [500 x i8]* %129, i64 0, i64 0
  %131 = call i32 (i8*, ...) @printf(i8* getelementptr inbounds ([4 x i8], [4 x i8]* @.str, i64 0, i64 0), i8* %130)
  %132 = load i32, i32* %15, align 4
  %133 = sext i32 %132 to i64
  %134 = getelementptr inbounds [50 x [500 x i8]], [50 x [500 x i8]]* %7, i64 0, i64 %133
  %135 = getelementptr inbounds [500 x i8], [500 x i8]* %134, i64 0, i64 0
  %136 = call i32 (i8*, ...) @printf(i8* getelementptr inbounds ([4 x i8], [4 x i8]* @.str, i64 0, i64 0), i8* %135)
  ret i32 0
}

declare dso_local i32 @gets(...) #1

; Function Attrs: nounwind
declare dso_local i8* @strcpy(i8*, i8*) #2

; Function Attrs: nounwind readonly
declare dso_local i64 @strlen(i8*) #3

declare dso_local i32 @printf(i8*, ...) #1


!llvm.module.flags = !{!0}
!llvm.ident = !{!1}

!0 = !{i32 1, !"wchar_size", i32 4}
!1 = !{!"clang version 10.0.0-4ubuntu1 "}
